target datalayout = "e-m:e-p270:32:32-p271:32:32-p272:64:64-i64:64-i128:128-f80:128-n8:16:32:64-S128"
target triple = "x86_64-unknown-linux-gnu"

%"class.__gnu_cxx::__normal_iterator" = type { ptr }
%"class.std::__cxx11::basic_string" = type { %"struct.std::__cxx11::basic_string<char>::_Alloc_hider", i64, %union.anon }
%"struct.std::__cxx11::basic_string<char>::_Alloc_hider" = type { ptr }
%union.anon = type { i64, [8 x i8] }
%"class.std::allocator" = type { i8 }

@.str = private unnamed_addr constant [46 x i8] c"bad character found while scanning hex number\00", align 1
@_ZTIN4YAML15ParserExceptionE = external constant ptr

; Function Attrs: mustprogress nounwind uwtable
define linkonce_odr noundef nonnull align 8 dereferenceable(8) ptr @_ZNK9__gnu_cxx17__normal_iteratorIPKcNSt7__cxx1112basic_stringIcSt11char_traitsIcESaIcEEEE4baseEv(ptr noundef nonnull align 8 dereferenceable(8) %this) #5 comdat align 2 {
entry:
  %this.addr = alloca ptr, align 8
  store ptr %this, ptr %this.addr, align 8
  %this1 = load ptr, ptr %this.addr, align 8
  %_M_current = getelementptr inbounds %"class.__gnu_cxx::__normal_iterator", ptr %this1, i32 0, i32 0
  ret ptr %_M_current
}

; Function Attrs: mustprogress nounwind uwtable
define linkonce_odr noundef nonnull align 8 dereferenceable(8) ptr @_ZN9__gnu_cxx17__normal_iteratorIPKcNSt7__cxx1112basic_stringIcSt11char_traitsIcESaIcEEEEppEv(ptr noundef nonnull align 8 dereferenceable(8) %this) #5 comdat align 2 {
entry:
  %this.addr = alloca ptr, align 8
  store ptr %this, ptr %this.addr, align 8
  %this1 = load ptr, ptr %this.addr, align 8
  %_M_current = getelementptr inbounds %"class.__gnu_cxx::__normal_iterator", ptr %this1, i32 0, i32 0
  %0 = load ptr, ptr %_M_current, align 8
  %incdec.ptr = getelementptr inbounds i8, ptr %0, i32 1
  store ptr %incdec.ptr, ptr %_M_current, align 8
  ret ptr %this1
}

; Function Attrs: mustprogress nounwind uwtable
define linkonce_odr noundef nonnull align 1 dereferenceable(1) ptr @_ZNK9__gnu_cxx17__normal_iteratorIPKcNSt7__cxx1112basic_stringIcSt11char_traitsIcESaIcEEEEdeEv(ptr noundef nonnull align 8 dereferenceable(8) %this) #5 comdat align 2 {
entry:
  %this.addr = alloca ptr, align 8
  store ptr %this, ptr %this.addr, align 8
  %this1 = load ptr, ptr %this.addr, align 8
  %_M_current = getelementptr inbounds %"class.__gnu_cxx::__normal_iterator", ptr %this1, i32 0, i32 0
  %0 = load ptr, ptr %_M_current, align 8
  ret ptr %0
}

; Function Attrs: mustprogress nounwind uwtable
define linkonce_odr noundef zeroext i1 @_ZN9__gnu_cxxneIPKcNSt7__cxx1112basic_stringIcSt11char_traitsIcESaIcEEEEEbRKNS_17__normal_iteratorIT_T0_EESE_(ptr noundef nonnull align 8 dereferenceable(8) %__lhs, ptr noundef nonnull align 8 dereferenceable(8) %__rhs) #5 comdat {
entry:
  %__lhs.addr = alloca ptr, align 8
  %__rhs.addr = alloca ptr, align 8
  store ptr %__lhs, ptr %__lhs.addr, align 8
  store ptr %__rhs, ptr %__rhs.addr, align 8
  %0 = load ptr, ptr %__lhs.addr, align 8
  %call = call noundef nonnull align 8 dereferenceable(8) ptr @_ZNK9__gnu_cxx17__normal_iteratorIPKcNSt7__cxx1112basic_stringIcSt11char_traitsIcESaIcEEEE4baseEv(ptr noundef nonnull align 8 dereferenceable(8) %0) #3
  %1 = load ptr, ptr %call, align 8
  %2 = load ptr, ptr %__rhs.addr, align 8
  %call1 = call noundef nonnull align 8 dereferenceable(8) ptr @_ZNK9__gnu_cxx17__normal_iteratorIPKcNSt7__cxx1112basic_stringIcSt11char_traitsIcESaIcEEEE4baseEv(ptr noundef nonnull align 8 dereferenceable(8) %2) #3
  %3 = load ptr, ptr %call1, align 8
  %cmp = icmp ne ptr %1, %3
  ret i1 %cmp
}

; Function Attrs: mustprogress uwtable
define noundef i32 @_ZN4YAML3Exp8ParseHexERKNSt7__cxx1112basic_stringIcSt11char_traitsIcESaIcEEERKNS_4MarkE(ptr noundef nonnull align 8 dereferenceable(32) %str, ptr noundef nonnull align 4 dereferenceable(12) %mark) #4 personality ptr @__gxx_personality_v0 {
entry:
  %str.addr = alloca ptr, align 8
  %mark.addr = alloca ptr, align 8
  %value = alloca i32, align 4
  %__range2 = alloca ptr, align 8
  %__begin2 = alloca %"class.__gnu_cxx::__normal_iterator", align 8
  %__end2 = alloca %"class.__gnu_cxx::__normal_iterator", align 8
  %ch = alloca i8, align 1
  %digit = alloca i32, align 4
  %ref.tmp = alloca %"class.std::__cxx11::basic_string", align 8
  %ref.tmp27 = alloca %"class.std::allocator", align 1
  %exn.slot = alloca ptr, align 8
  %ehselector.slot = alloca i32, align 4
  %cleanup.isactive = alloca i1, align 1
  store ptr %str, ptr %str.addr, align 8
  store ptr %mark, ptr %mark.addr, align 8
  store i32 0, ptr %value, align 4
  %0 = load ptr, ptr %str.addr, align 8
  store ptr %0, ptr %__range2, align 8
  %1 = load ptr, ptr %__range2, align 8
  %call = call ptr @_ZNKSt7__cxx1112basic_stringIcSt11char_traitsIcESaIcEE5beginEv(ptr noundef nonnull align 8 dereferenceable(32) %1) #3
  %coerce.dive = getelementptr inbounds %"class.__gnu_cxx::__normal_iterator", ptr %__begin2, i32 0, i32 0
  store ptr %call, ptr %coerce.dive, align 8
  %2 = load ptr, ptr %__range2, align 8
  %call1 = call ptr @_ZNKSt7__cxx1112basic_stringIcSt11char_traitsIcESaIcEE3endEv(ptr noundef nonnull align 8 dereferenceable(32) %2) #3
  %coerce.dive2 = getelementptr inbounds %"class.__gnu_cxx::__normal_iterator", ptr %__end2, i32 0, i32 0
  store ptr %call1, ptr %coerce.dive2, align 8
  br label %for.cond

for.cond:                                         ; preds = %for.inc, %entry
  %call3 = call noundef zeroext i1 @_ZN9__gnu_cxxneIPKcNSt7__cxx1112basic_stringIcSt11char_traitsIcESaIcEEEEEbRKNS_17__normal_iteratorIT_T0_EESE_(ptr noundef nonnull align 8 dereferenceable(8) %__begin2, ptr noundef nonnull align 8 dereferenceable(8) %__end2) #3
  br i1 %call3, label %for.body, label %for.end

for.body:                                         ; preds = %for.cond
  %call4 = call noundef nonnull align 1 dereferenceable(1) ptr @_ZNK9__gnu_cxx17__normal_iteratorIPKcNSt7__cxx1112basic_stringIcSt11char_traitsIcESaIcEEEEdeEv(ptr noundef nonnull align 8 dereferenceable(8) %__begin2) #3
  %3 = load i8, ptr %call4, align 1
  store i8 %3, ptr %ch, align 1
  store i32 0, ptr %digit, align 4
  %4 = load i8, ptr %ch, align 1
  %conv = sext i8 %4 to i32
  %cmp = icmp sle i32 97, %conv
  br i1 %cmp, label %land.lhs.true, label %if.else

land.lhs.true:                                    ; preds = %for.body
  %5 = load i8, ptr %ch, align 1
  %conv5 = sext i8 %5 to i32
  %cmp6 = icmp sle i32 %conv5, 102
  br i1 %cmp6, label %if.then, label %if.else

if.then:                                          ; preds = %land.lhs.true
  %6 = load i8, ptr %ch, align 1
  %conv7 = sext i8 %6 to i32
  %sub = sub nsw i32 %conv7, 97
  %add = add nsw i32 %sub, 10
  store i32 %add, ptr %digit, align 4
  br label %if.end32

if.else:                                          ; preds = %land.lhs.true, %for.body
  %7 = load i8, ptr %ch, align 1
  %conv8 = sext i8 %7 to i32
  %cmp9 = icmp sle i32 65, %conv8
  br i1 %cmp9, label %land.lhs.true10, label %if.else17

land.lhs.true10:                                  ; preds = %if.else
  %8 = load i8, ptr %ch, align 1
  %conv11 = sext i8 %8 to i32
  %cmp12 = icmp sle i32 %conv11, 70
  br i1 %cmp12, label %if.then13, label %if.else17

if.then13:                                        ; preds = %land.lhs.true10
  %9 = load i8, ptr %ch, align 1
  %conv14 = sext i8 %9 to i32
  %sub15 = sub nsw i32 %conv14, 65
  %add16 = add nsw i32 %sub15, 10
  store i32 %add16, ptr %digit, align 4
  br label %if.end31

if.else17:                                        ; preds = %land.lhs.true10, %if.else
  %10 = load i8, ptr %ch, align 1
  %conv18 = sext i8 %10 to i32
  %cmp19 = icmp sle i32 48, %conv18
  br i1 %cmp19, label %land.lhs.true20, label %if.else26

land.lhs.true20:                                  ; preds = %if.else17
  %11 = load i8, ptr %ch, align 1
  %conv21 = sext i8 %11 to i32
  %cmp22 = icmp sle i32 %conv21, 57
  br i1 %cmp22, label %if.then23, label %if.else26

if.then23:                                        ; preds = %land.lhs.true20
  %12 = load i8, ptr %ch, align 1
  %conv24 = sext i8 %12 to i32
  %sub25 = sub nsw i32 %conv24, 48
  store i32 %sub25, ptr %digit, align 4
  br label %if.end

if.else26:                                        ; preds = %land.lhs.true20, %if.else17
  store i1 true, ptr %cleanup.isactive, align 1
  %exception = call ptr @__cxa_allocate_exception(i64 64) #3
  %13 = load ptr, ptr %mark.addr, align 8
  call void @_ZNSaIcEC1Ev(ptr noundef nonnull align 1 dereferenceable(1) %ref.tmp27) #3
  invoke void @_ZNSt7__cxx1112basic_stringIcSt11char_traitsIcESaIcEEC1EPKcRKS3_(ptr noundef nonnull align 8 dereferenceable(32) %ref.tmp, ptr noundef @.str, ptr noundef nonnull align 1 dereferenceable(1) %ref.tmp27)
          to label %invoke.cont unwind label %lpad

invoke.cont:                                      ; preds = %if.else26
  invoke void @_ZN4YAML15ParserExceptionC2ERKNS_4MarkERKNSt7__cxx1112basic_stringIcSt11char_traitsIcESaIcEEE(ptr noundef nonnull align 8 dereferenceable(64) %exception, ptr noundef nonnull align 4 dereferenceable(12) %13, ptr noundef nonnull align 8 dereferenceable(32) %ref.tmp)
          to label %invoke.cont29 unwind label %lpad28

invoke.cont29:                                    ; preds = %invoke.cont
  store i1 false, ptr %cleanup.isactive, align 1
  invoke void @__cxa_throw(ptr %exception, ptr @_ZTIN4YAML15ParserExceptionE, ptr @_ZN4YAML15ParserExceptionD1Ev) #7
          to label %unreachable unwind label %lpad28

lpad:                                             ; preds = %if.else26
  %14 = landingpad { ptr, i32 }
          cleanup
  %15 = extractvalue { ptr, i32 } %14, 0
  store ptr %15, ptr %exn.slot, align 8
  %16 = extractvalue { ptr, i32 } %14, 1
  store i32 %16, ptr %ehselector.slot, align 4
  br label %ehcleanup

lpad28:                                           ; preds = %invoke.cont29, %invoke.cont
  %17 = landingpad { ptr, i32 }
          cleanup
  %18 = extractvalue { ptr, i32 } %17, 0
  store ptr %18, ptr %exn.slot, align 8
  %19 = extractvalue { ptr, i32 } %17, 1
  store i32 %19, ptr %ehselector.slot, align 4
  call void @_ZNSt7__cxx1112basic_stringIcSt11char_traitsIcESaIcEED1Ev(ptr noundef nonnull align 8 dereferenceable(32) %ref.tmp) #3
  br label %ehcleanup

ehcleanup:                                        ; preds = %lpad28, %lpad
  call void @_ZNSaIcED1Ev(ptr noundef nonnull align 1 dereferenceable(1) %ref.tmp27) #3
  %cleanup.is_active = load i1, ptr %cleanup.isactive, align 1
  br i1 %cleanup.is_active, label %cleanup.action, label %cleanup.done

cleanup.action:                                   ; preds = %ehcleanup
  call void @__cxa_free_exception(ptr %exception) #3
  br label %cleanup.done

cleanup.done:                                     ; preds = %cleanup.action, %ehcleanup
  br label %eh.resume

if.end:                                           ; preds = %if.then23
  br label %if.end31

if.end31:                                         ; preds = %if.end, %if.then13
  br label %if.end32

if.end32:                                         ; preds = %if.end31, %if.then
  %20 = load i32, ptr %value, align 4
  %shl = shl i32 %20, 4
  %21 = load i32, ptr %digit, align 4
  %add33 = add i32 %shl, %21
  store i32 %add33, ptr %value, align 4
  br label %for.inc

for.inc:                                          ; preds = %if.end32
  %call34 = call noundef nonnull align 8 dereferenceable(8) ptr @_ZN9__gnu_cxx17__normal_iteratorIPKcNSt7__cxx1112basic_stringIcSt11char_traitsIcESaIcEEEEppEv(ptr noundef nonnull align 8 dereferenceable(8) %__begin2) #3
  br label %for.cond

for.end:                                          ; preds = %for.cond
  %22 = load i32, ptr %value, align 4
  ret i32 %22

eh.resume:                                        ; preds = %cleanup.done
  %exn = load ptr, ptr %exn.slot, align 8
  %sel = load i32, ptr %ehselector.slot, align 4
  %lpad.val = insertvalue { ptr, i32 } poison, ptr %exn, 0
  %lpad.val35 = insertvalue { ptr, i32 } %lpad.val, i32 %sel, 1
  resume { ptr, i32 } %lpad.val35

unreachable:                                      ; preds = %invoke.cont29
  unreachable
}