; Function Attrs: mustprogress uwtable
define noundef i32 @_ZN4YAML3Exp8ParseHexERKNSt7__cxx1112basic_stringIcSt11char_traitsIcESaIcEEERKNS_4MarkE(ptr noundef nonnull align 8 dereferenceable(32) %str, ptr noundef nonnull align 4 dereferenceable(12) %mark) local_unnamed_addr #3 personality ptr @__gxx_personality_v0 {
entry:
  %ref.tmp = alloca %"class.std::__cxx11::basic_string", align 8
  %ref.tmp27 = alloca %"class.std::allocator", align 1
  %call = tail call ptr @_ZNKSt7__cxx1112basic_stringIcSt11char_traitsIcESaIcEE5beginEv(ptr noundef nonnull align 8 dereferenceable(32) %str) #7
  %call1 = tail call ptr @_ZNKSt7__cxx1112basic_stringIcSt11char_traitsIcESaIcEE3endEv(ptr noundef nonnull align 8 dereferenceable(32) %str) #7
  %cmp.i.not21 = icmp eq ptr %call, %call1
  br i1 %cmp.i.not21, label %for.end, label %for.body

for.body:                                         ; preds = %entry, %if.end32
  %value.023 = phi i32 [ %add33, %if.end32 ], [ 0, %entry ]
  %__begin2.sroa.0.022 = phi ptr [ %incdec.ptr.i, %if.end32 ], [ %call, %entry ]
  %0 = load i8, ptr %__begin2.sroa.0.022, align 1
  %conv = sext i8 %0 to i32
  %1 = add i8 %0, -97
  %or.cond = icmp ult i8 %1, 6
  br i1 %or.cond, label %if.end32, label %if.else

if.else:                                          ; preds = %for.body
  %2 = add i8 %0, -65
  %or.cond1 = icmp ult i8 %2, 6
  br i1 %or.cond1, label %if.end32, label %if.else17

if.else17:                                        ; preds = %if.else
  %3 = add i8 %0, -48
  %or.cond2 = icmp ult i8 %3, 10
  br i1 %or.cond2, label %if.end32, label %if.else26

if.else26:                                        ; preds = %if.else17
  %exception = tail call ptr @__cxa_allocate_exception(i64 64) #7
  call void @_ZNSaIcEC1Ev(ptr noundef nonnull align 1 dereferenceable(1) %ref.tmp27) #7
  invoke void @_ZNSt7__cxx1112basic_stringIcSt11char_traitsIcESaIcEEC1EPKcRKS3_(ptr noundef nonnull align 8 dereferenceable(32) %ref.tmp, ptr noundef nonnull @.str, ptr noundef nonnull align 1 dereferenceable(1) %ref.tmp27)
          to label %invoke.cont unwind label %ehcleanup.thread

invoke.cont:                                      ; preds = %if.else26
  invoke void @_ZN4YAML15ParserExceptionC2ERKNS_4MarkERKNSt7__cxx1112basic_stringIcSt11char_traitsIcESaIcEEE(ptr noundef nonnull align 8 dereferenceable(64) %exception, ptr noundef nonnull align 4 dereferenceable(12) %mark, ptr noundef nonnull align 8 dereferenceable(32) %ref.tmp)
          to label %invoke.cont29 unwind label %ehcleanup

invoke.cont29:                                    ; preds = %invoke.cont
  invoke void @__cxa_throw(ptr nonnull %exception, ptr nonnull @_ZTIN4YAML15ParserExceptionE, ptr nonnull @_ZN4YAML15ParserExceptionD1Ev) #8
          to label %unreachable unwind label %ehcleanup

ehcleanup.thread:                                 ; preds = %if.else26
  %4 = landingpad { ptr, i32 }
          cleanup
  call void @_ZNSaIcED1Ev(ptr noundef nonnull align 1 dereferenceable(1) %ref.tmp27) #7
  br label %cleanup.action

ehcleanup:                                        ; preds = %invoke.cont, %invoke.cont29
  %cleanup.isactive.0 = phi i1 [ false, %invoke.cont29 ], [ true, %invoke.cont ]
  %5 = landingpad { ptr, i32 }
          cleanup
  call void @_ZNSt7__cxx1112basic_stringIcSt11char_traitsIcESaIcEED1Ev(ptr noundef nonnull align 8 dereferenceable(32) %ref.tmp) #7
  call void @_ZNSaIcED1Ev(ptr noundef nonnull align 1 dereferenceable(1) %ref.tmp27) #7
  br i1 %cleanup.isactive.0, label %cleanup.action, label %eh.resume

cleanup.action:                                   ; preds = %ehcleanup.thread, %ehcleanup
  %.pn19 = phi { ptr, i32 } [ %4, %ehcleanup.thread ], [ %5, %ehcleanup ]
  call void @__cxa_free_exception(ptr %exception) #7
  br label %eh.resume

if.end32:                                         ; preds = %if.else17, %if.else, %for.body
  %.sink = phi i32 [ -87, %for.body ], [ -55, %if.else ], [ -48, %if.else17 ]
  %add16 = add nsw i32 %.sink, %conv
  %shl = shl i32 %value.023, 4
  %add33 = add nuw i32 %add16, %shl
  %incdec.ptr.i = getelementptr inbounds i8, ptr %__begin2.sroa.0.022, i64 1
  %cmp.i.not = icmp eq ptr %incdec.ptr.i, %call1
  br i1 %cmp.i.not, label %for.end, label %for.body

for.end:                                          ; preds = %if.end32, %entry
  %value.0.lcssa = phi i32 [ 0, %entry ], [ %add33, %if.end32 ]
  ret i32 %value.0.lcssa

eh.resume:                                        ; preds = %ehcleanup, %cleanup.action
  %.pn18 = phi { ptr, i32 } [ %5, %ehcleanup ], [ %.pn19, %cleanup.action ]
  resume { ptr, i32 } %.pn18

unreachable:                                      ; preds = %invoke.cont29
  unreachable
}